; Function Attrs: nounwind uwtable
define internal i32 @pmeth_func_cmp_BSEARCH_CMP_FN(ptr noundef readonly captures(none) %0, ptr noundef readonly captures(none) %1) #0 {
  %.val = load ptr, ptr %0, align 8, !tbaa !11
  %.val4 = load ptr, ptr %1, align 8, !tbaa !13
  %.val.val = load i32, ptr %.val, align 8, !tbaa !8
  %3 = tail call ptr %.val4() #10
  %4 = load i32, ptr %3, align 8, !tbaa !8
  %5 = sub nsw i32 %.val.val, %4
  ret i32 %5
}